ccopy_reg
_reconstructor
p0
(csklearn.ensemble.bagging
BaggingClassifier
p1
c__builtin__
object
p2
Ntp3
Rp4
(dp5
S'max_samples'
p6
F1.0
sS'base_estimator'
p7
NsS'estimators_'
p8
(lp9
sS'n_jobs'
p10
I1
sS'verbose'
p11
I0
sS'random_state'
p12
I202
sS'bootstrap'
p13
I01
sS'oob_score'
p14
I00
sS'n_estimators'
p15
I4901
sS'estimator_params'
p16
(tsS'max_features'
p17
F1.0
sS'bootstrap_features'
p18
I00
sb.